target datalayout = "e-m:e-p270:32:32-p271:32:32-p272:64:64-i64:64-i128:128-f80:128-n8:16:32:64-S128"
target triple = "x86_64-pc-linux-gnu"

; Function Attrs: nounwind uwtable
define i32 @stbte__strequal(ptr noundef %0, ptr noundef %1) #0 {
  %3 = alloca i32, align 4
  %4 = alloca ptr, align 8
  %5 = alloca ptr, align 8
  store ptr %0, ptr %4, align 8, !tbaa !72
  store ptr %1, ptr %5, align 8, !tbaa !72
  br label %6

6:                                                ; preds = %21, %2
  %7 = load ptr, ptr %4, align 8, !tbaa !72
  %8 = load i8, ptr %7, align 1, !tbaa !60
  %9 = icmp ne i8 %8, 0
  br i1 %9, label %10, label %22

10:                                               ; preds = %6
  %11 = load ptr, ptr %4, align 8, !tbaa !72
  %12 = getelementptr inbounds nuw i8, ptr %11, i32 1
  store ptr %12, ptr %4, align 8, !tbaa !72
  %13 = load i8, ptr %11, align 1, !tbaa !60
  %14 = sext i8 %13 to i32
  %15 = load ptr, ptr %5, align 8, !tbaa !72
  %16 = getelementptr inbounds nuw i8, ptr %15, i32 1
  store ptr %16, ptr %5, align 8, !tbaa !72
  %17 = load i8, ptr %15, align 1, !tbaa !60
  %18 = sext i8 %17 to i32
  %19 = icmp ne i32 %14, %18
  br i1 %19, label %20, label %21

20:                                               ; preds = %10
  store i32 0, ptr %3, align 4
  br label %28

21:                                               ; preds = %10
  br label %6, !llvm.loop !83

22:                                               ; preds = %6
  %23 = load ptr, ptr %5, align 8, !tbaa !72
  %24 = load i8, ptr %23, align 1, !tbaa !60
  %25 = sext i8 %24 to i32
  %26 = icmp eq i32 %25, 0
  %27 = zext i1 %26 to i32
  store i32 %27, ptr %3, align 4
  br label %28

28:                                               ; preds = %22, %20
  %29 = load i32, ptr %3, align 4
  ret i32 %29
}