; Function Attrs: nofree norecurse nosync nounwind memory(argmem: read) uwtable
define range(i32 0, 2) i32 @stbte__strequal(ptr noundef readonly captures(none) %0, ptr noundef readonly captures(none) %1) local_unnamed_addr #12 {
  br label %3

3:                                                ; preds = %5, %2
  %.04 = phi ptr [ %0, %2 ], [ %6, %5 ]
  %.0 = phi ptr [ %1, %2 ], [ %7, %5 ]
  %4 = load i8, ptr %.04, align 1, !tbaa !47
  %.not = icmp eq i8 %4, 0
  br i1 %.not, label %9, label %5

5:                                                ; preds = %3
  %6 = getelementptr inbounds nuw i8, ptr %.04, i64 1
  %7 = getelementptr inbounds nuw i8, ptr %.0, i64 1
  %8 = load i8, ptr %.0, align 1, !tbaa !47
  %.not7 = icmp eq i8 %4, %8
  br i1 %.not7, label %3, label %.loopexit, !llvm.loop !71

9:                                                ; preds = %3
  %10 = load i8, ptr %.0, align 1, !tbaa !47
  %11 = icmp eq i8 %10, 0
  %12 = zext i1 %11 to i32
  br label %.loopexit

.loopexit:                                        ; preds = %5, %9
  %.05 = phi i32 [ %12, %9 ], [ 0, %5 ]
  ret i32 %.05
}